target datalayout = "e-m:e-p270:32:32-p271:32:32-p272:64:64-i64:64-i128:128-f80:128-n8:16:32:64-S128"
target triple = "x86_64-pc-linux-gnu"

%struct.bignum_st = type { ptr, i32, i32, i32, i32 }

; Function Attrs: nounwind uwtable
define hidden i32 @BN_uadd(ptr noundef %0, ptr noundef %1, ptr noundef %2) #0 {
  %4 = alloca i32, align 4
  %5 = alloca ptr, align 8
  %6 = alloca ptr, align 8
  %7 = alloca ptr, align 8
  %8 = alloca i32, align 4
  %9 = alloca i32, align 4
  %10 = alloca i32, align 4
  %11 = alloca ptr, align 8
  %12 = alloca ptr, align 8
  %13 = alloca ptr, align 8
  %14 = alloca i64, align 8
  %15 = alloca i64, align 8
  %16 = alloca i64, align 8
  %17 = alloca ptr, align 8
  %18 = alloca i32, align 4
  store ptr %0, ptr %5, align 8, !tbaa !6
  store ptr %1, ptr %6, align 8, !tbaa !6
  store ptr %2, ptr %7, align 8, !tbaa !6
  call void @llvm.lifetime.start.p0(i64 4, ptr %8) #4
  call void @llvm.lifetime.start.p0(i64 4, ptr %9) #4
  call void @llvm.lifetime.start.p0(i64 4, ptr %10) #4
  call void @llvm.lifetime.start.p0(i64 8, ptr %11) #4
  call void @llvm.lifetime.start.p0(i64 8, ptr %12) #4
  call void @llvm.lifetime.start.p0(i64 8, ptr %13) #4
  call void @llvm.lifetime.start.p0(i64 8, ptr %14) #4
  call void @llvm.lifetime.start.p0(i64 8, ptr %15) #4
  call void @llvm.lifetime.start.p0(i64 8, ptr %16) #4
  call void @llvm.lifetime.start.p0(i64 8, ptr %17) #4
  %19 = load ptr, ptr %6, align 8, !tbaa !6
  %20 = getelementptr inbounds nuw %struct.bignum_st, ptr %19, i32 0, i32 1
  %21 = load i32, ptr %20, align 8, !tbaa !16
  %22 = load ptr, ptr %7, align 8, !tbaa !6
  %23 = getelementptr inbounds nuw %struct.bignum_st, ptr %22, i32 0, i32 1
  %24 = load i32, ptr %23, align 8, !tbaa !16
  %25 = icmp slt i32 %21, %24
  br i1 %25, label %26, label %30

26:                                               ; preds = %3
  %27 = load ptr, ptr %6, align 8, !tbaa !6
  store ptr %27, ptr %17, align 8, !tbaa !6
  %28 = load ptr, ptr %7, align 8, !tbaa !6
  store ptr %28, ptr %6, align 8, !tbaa !6
  %29 = load ptr, ptr %17, align 8, !tbaa !6
  store ptr %29, ptr %7, align 8, !tbaa !6
  br label %30

30:                                               ; preds = %26, %3
  %31 = load ptr, ptr %6, align 8, !tbaa !6
  %32 = getelementptr inbounds nuw %struct.bignum_st, ptr %31, i32 0, i32 1
  %33 = load i32, ptr %32, align 8, !tbaa !16
  store i32 %33, ptr %8, align 4, !tbaa !15
  %34 = load ptr, ptr %7, align 8, !tbaa !6
  %35 = getelementptr inbounds nuw %struct.bignum_st, ptr %34, i32 0, i32 1
  %36 = load i32, ptr %35, align 8, !tbaa !16
  store i32 %36, ptr %9, align 4, !tbaa !15
  %37 = load i32, ptr %8, align 4, !tbaa !15
  %38 = load i32, ptr %9, align 4, !tbaa !15
  %39 = sub nsw i32 %37, %38
  store i32 %39, ptr %10, align 4, !tbaa !15
  %40 = load ptr, ptr %5, align 8, !tbaa !6
  %41 = load i32, ptr %8, align 4, !tbaa !15
  %42 = add nsw i32 %41, 1
  %43 = sext i32 %42 to i64
  %44 = call ptr @bn_wexpand(ptr noundef %40, i64 noundef %43)
  %45 = icmp eq ptr %44, null
  br i1 %45, label %46, label %47

46:                                               ; preds = %30
  store i32 0, ptr %4, align 4
  store i32 1, ptr %18, align 4
  br label %131

47:                                               ; preds = %30
  %48 = load i32, ptr %8, align 4, !tbaa !15
  %49 = load ptr, ptr %5, align 8, !tbaa !6
  %50 = getelementptr inbounds nuw %struct.bignum_st, ptr %49, i32 0, i32 1
  store i32 %48, ptr %50, align 8, !tbaa !16
  %51 = load ptr, ptr %6, align 8, !tbaa !6
  %52 = getelementptr inbounds nuw %struct.bignum_st, ptr %51, i32 0, i32 0
  %53 = load ptr, ptr %52, align 8, !tbaa !17
  store ptr %53, ptr %11, align 8, !tbaa !18
  %54 = load ptr, ptr %7, align 8, !tbaa !6
  %55 = getelementptr inbounds nuw %struct.bignum_st, ptr %54, i32 0, i32 0
  %56 = load ptr, ptr %55, align 8, !tbaa !17
  store ptr %56, ptr %12, align 8, !tbaa !18
  %57 = load ptr, ptr %5, align 8, !tbaa !6
  %58 = getelementptr inbounds nuw %struct.bignum_st, ptr %57, i32 0, i32 0
  %59 = load ptr, ptr %58, align 8, !tbaa !17
  store ptr %59, ptr %13, align 8, !tbaa !18
  %60 = load ptr, ptr %13, align 8, !tbaa !18
  %61 = load ptr, ptr %11, align 8, !tbaa !18
  %62 = load ptr, ptr %12, align 8, !tbaa !18
  %63 = load i32, ptr %9, align 4, !tbaa !15
  %64 = call i64 @bn_add_words(ptr noundef %60, ptr noundef %61, ptr noundef %62, i32 noundef %63)
  store i64 %64, ptr %14, align 8, !tbaa !19
  %65 = load i32, ptr %9, align 4, !tbaa !15
  %66 = load ptr, ptr %13, align 8, !tbaa !18
  %67 = sext i32 %65 to i64
  %68 = getelementptr inbounds i64, ptr %66, i64 %67
  store ptr %68, ptr %13, align 8, !tbaa !18
  %69 = load i32, ptr %9, align 4, !tbaa !15
  %70 = load ptr, ptr %11, align 8, !tbaa !18
  %71 = sext i32 %69 to i64
  %72 = getelementptr inbounds i64, ptr %70, i64 %71
  store ptr %72, ptr %11, align 8, !tbaa !18
  %73 = load i32, ptr %9, align 4, !tbaa !15
  %74 = load ptr, ptr %12, align 8, !tbaa !18
  %75 = sext i32 %73 to i64
  %76 = getelementptr inbounds i64, ptr %74, i64 %75
  store ptr %76, ptr %12, align 8, !tbaa !18
  %77 = load i64, ptr %14, align 8, !tbaa !19
  %78 = icmp ne i64 %77, 0
  br i1 %78, label %79, label %109

79:                                               ; preds = %47
  br label %80

80:                                               ; preds = %98, %79
  %81 = load i32, ptr %10, align 4, !tbaa !15
  %82 = icmp ne i32 %81, 0
  br i1 %82, label %83, label %99

83:                                               ; preds = %80
  %84 = load i32, ptr %10, align 4, !tbaa !15
  %85 = add nsw i32 %84, -1
  store i32 %85, ptr %10, align 4, !tbaa !15
  %86 = load ptr, ptr %11, align 8, !tbaa !18
  %87 = getelementptr inbounds nuw i64, ptr %86, i32 1
  store ptr %87, ptr %11, align 8, !tbaa !18
  %88 = load i64, ptr %86, align 8, !tbaa !19
  store i64 %88, ptr %15, align 8, !tbaa !19
  %89 = load i64, ptr %15, align 8, !tbaa !19
  %90 = add i64 %89, 1
  %91 = and i64 %90, -1
  store i64 %91, ptr %16, align 8, !tbaa !19
  %92 = load i64, ptr %16, align 8, !tbaa !19
  %93 = load ptr, ptr %13, align 8, !tbaa !18
  %94 = getelementptr inbounds nuw i64, ptr %93, i32 1
  store ptr %94, ptr %13, align 8, !tbaa !18
  store i64 %92, ptr %93, align 8, !tbaa !19
  %95 = load i64, ptr %16, align 8, !tbaa !19
  %96 = icmp ne i64 %95, 0
  br i1 %96, label %97, label %98

97:                                               ; preds = %83
  store i64 0, ptr %14, align 8, !tbaa !19
  br label %99

98:                                               ; preds = %83
  br label %80, !llvm.loop !24

99:                                               ; preds = %97, %80
  %100 = load i64, ptr %14, align 8, !tbaa !19
  %101 = icmp ne i64 %100, 0
  br i1 %101, label %102, label %108

102:                                              ; preds = %99
  %103 = load ptr, ptr %13, align 8, !tbaa !18
  store i64 1, ptr %103, align 8, !tbaa !19
  %104 = load ptr, ptr %5, align 8, !tbaa !6
  %105 = getelementptr inbounds nuw %struct.bignum_st, ptr %104, i32 0, i32 1
  %106 = load i32, ptr %105, align 8, !tbaa !16
  %107 = add nsw i32 %106, 1
  store i32 %107, ptr %105, align 8, !tbaa !16
  br label %108

108:                                              ; preds = %102, %99
  br label %109

109:                                              ; preds = %108, %47
  %110 = load i32, ptr %10, align 4, !tbaa !15
  %111 = icmp ne i32 %110, 0
  br i1 %111, label %112, label %128

112:                                              ; preds = %109
  %113 = load ptr, ptr %13, align 8, !tbaa !18
  %114 = load ptr, ptr %11, align 8, !tbaa !18
  %115 = icmp ne ptr %113, %114
  br i1 %115, label %116, label %128

116:                                              ; preds = %112
  br label %117

117:                                              ; preds = %121, %116
  %118 = load i32, ptr %10, align 4, !tbaa !15
  %119 = add nsw i32 %118, -1
  store i32 %119, ptr %10, align 4, !tbaa !15
  %120 = icmp ne i32 %118, 0
  br i1 %120, label %121, label %127

121:                                              ; preds = %117
  %122 = load ptr, ptr %11, align 8, !tbaa !18
  %123 = getelementptr inbounds nuw i64, ptr %122, i32 1
  store ptr %123, ptr %11, align 8, !tbaa !18
  %124 = load i64, ptr %122, align 8, !tbaa !19
  %125 = load ptr, ptr %13, align 8, !tbaa !18
  %126 = getelementptr inbounds nuw i64, ptr %125, i32 1
  store ptr %126, ptr %13, align 8, !tbaa !18
  store i64 %124, ptr %125, align 8, !tbaa !19
  br label %117, !llvm.loop !25

127:                                              ; preds = %117
  br label %128

128:                                              ; preds = %127, %112, %109
  %129 = load ptr, ptr %5, align 8, !tbaa !6
  %130 = getelementptr inbounds nuw %struct.bignum_st, ptr %129, i32 0, i32 3
  store i32 0, ptr %130, align 8, !tbaa !11
  store i32 1, ptr %4, align 4
  store i32 1, ptr %18, align 4
  br label %131

131:                                              ; preds = %128, %46
  call void @llvm.lifetime.end.p0(i64 8, ptr %17) #4
  call void @llvm.lifetime.end.p0(i64 8, ptr %16) #4
  call void @llvm.lifetime.end.p0(i64 8, ptr %15) #4
  call void @llvm.lifetime.end.p0(i64 8, ptr %14) #4
  call void @llvm.lifetime.end.p0(i64 8, ptr %13) #4
  call void @llvm.lifetime.end.p0(i64 8, ptr %12) #4
  call void @llvm.lifetime.end.p0(i64 8, ptr %11) #4
  call void @llvm.lifetime.end.p0(i64 4, ptr %10) #4
  call void @llvm.lifetime.end.p0(i64 4, ptr %9) #4
  call void @llvm.lifetime.end.p0(i64 4, ptr %8) #4
  %132 = load i32, ptr %4, align 4
  ret i32 %132
}

; Function Attrs: nounwind uwtable
define hidden i32 @BN_add(ptr noundef %0, ptr noundef %1, ptr noundef %2) #0 {
  %4 = alloca i32, align 4
  %5 = alloca ptr, align 8
  %6 = alloca ptr, align 8
  %7 = alloca ptr, align 8
  %8 = alloca ptr, align 8
  %9 = alloca i32, align 4
  %10 = alloca i32, align 4
  %11 = alloca i32, align 4
  store ptr %0, ptr %5, align 8, !tbaa !6
  store ptr %1, ptr %6, align 8, !tbaa !6
  store ptr %2, ptr %7, align 8, !tbaa !6
  call void @llvm.lifetime.start.p0(i64 8, ptr %8) #4
  call void @llvm.lifetime.start.p0(i64 4, ptr %9) #4
  %12 = load ptr, ptr %6, align 8, !tbaa !6
  %13 = getelementptr inbounds nuw %struct.bignum_st, ptr %12, i32 0, i32 3
  %14 = load i32, ptr %13, align 8, !tbaa !11
  store i32 %14, ptr %9, align 4, !tbaa !15
  call void @llvm.lifetime.start.p0(i64 4, ptr %10) #4
  %15 = load i32, ptr %9, align 4, !tbaa !15
  %16 = load ptr, ptr %7, align 8, !tbaa !6
  %17 = getelementptr inbounds nuw %struct.bignum_st, ptr %16, i32 0, i32 3
  %18 = load i32, ptr %17, align 8, !tbaa !11
  %19 = xor i32 %15, %18
  %20 = icmp ne i32 %19, 0
  br i1 %20, label %21, label %54

21:                                               ; preds = %3
  %22 = load i32, ptr %9, align 4, !tbaa !15
  %23 = icmp ne i32 %22, 0
  br i1 %23, label %24, label %28

24:                                               ; preds = %21
  %25 = load ptr, ptr %6, align 8, !tbaa !6
  store ptr %25, ptr %8, align 8, !tbaa !6
  %26 = load ptr, ptr %7, align 8, !tbaa !6
  store ptr %26, ptr %6, align 8, !tbaa !6
  %27 = load ptr, ptr %8, align 8, !tbaa !6
  store ptr %27, ptr %7, align 8, !tbaa !6
  br label %28

28:                                               ; preds = %24, %21
  %29 = load ptr, ptr %6, align 8, !tbaa !6
  %30 = load ptr, ptr %7, align 8, !tbaa !6
  %31 = call i32 @BN_ucmp(ptr noundef %29, ptr noundef %30)
  %32 = icmp slt i32 %31, 0
  br i1 %32, label %33, label %43

33:                                               ; preds = %28
  %34 = load ptr, ptr %5, align 8, !tbaa !6
  %35 = load ptr, ptr %7, align 8, !tbaa !6
  %36 = load ptr, ptr %6, align 8, !tbaa !6
  %37 = call i32 @BN_usub(ptr noundef %34, ptr noundef %35, ptr noundef %36)
  %38 = icmp ne i32 %37, 0
  br i1 %38, label %40, label %39

39:                                               ; preds = %33
  store i32 0, ptr %4, align 4
  store i32 1, ptr %11, align 4
  br label %63

40:                                               ; preds = %33
  %41 = load ptr, ptr %5, align 8, !tbaa !6
  %42 = getelementptr inbounds nuw %struct.bignum_st, ptr %41, i32 0, i32 3
  store i32 1, ptr %42, align 8, !tbaa !11
  br label %53

43:                                               ; preds = %28
  %44 = load ptr, ptr %5, align 8, !tbaa !6
  %45 = load ptr, ptr %6, align 8, !tbaa !6
  %46 = load ptr, ptr %7, align 8, !tbaa !6
  %47 = call i32 @BN_usub(ptr noundef %44, ptr noundef %45, ptr noundef %46)
  %48 = icmp ne i32 %47, 0
  br i1 %48, label %50, label %49

49:                                               ; preds = %43
  store i32 0, ptr %4, align 4
  store i32 1, ptr %11, align 4
  br label %63

50:                                               ; preds = %43
  %51 = load ptr, ptr %5, align 8, !tbaa !6
  %52 = getelementptr inbounds nuw %struct.bignum_st, ptr %51, i32 0, i32 3
  store i32 0, ptr %52, align 8, !tbaa !11
  br label %53

53:                                               ; preds = %50, %40
  store i32 1, ptr %4, align 4
  store i32 1, ptr %11, align 4
  br label %63

54:                                               ; preds = %3
  %55 = load ptr, ptr %5, align 8, !tbaa !6
  %56 = load ptr, ptr %6, align 8, !tbaa !6
  %57 = load ptr, ptr %7, align 8, !tbaa !6
  %58 = call i32 @BN_uadd(ptr noundef %55, ptr noundef %56, ptr noundef %57)
  store i32 %58, ptr %10, align 4, !tbaa !15
  %59 = load i32, ptr %9, align 4, !tbaa !15
  %60 = load ptr, ptr %5, align 8, !tbaa !6
  %61 = getelementptr inbounds nuw %struct.bignum_st, ptr %60, i32 0, i32 3
  store i32 %59, ptr %61, align 8, !tbaa !11
  %62 = load i32, ptr %10, align 4, !tbaa !15
  store i32 %62, ptr %4, align 4
  store i32 1, ptr %11, align 4
  br label %63

63:                                               ; preds = %54, %53, %49, %39
  call void @llvm.lifetime.end.p0(i64 4, ptr %10) #4
  call void @llvm.lifetime.end.p0(i64 4, ptr %9) #4
  call void @llvm.lifetime.end.p0(i64 8, ptr %8) #4
  %64 = load i32, ptr %4, align 4
  ret i32 %64
}