; Function Attrs: nounwind uwtable
define hidden range(i32 0, 2) i32 @BN_add(ptr noundef %0, ptr noundef %1, ptr noundef %2) local_unnamed_addr #0 {
  %4 = getelementptr inbounds nuw i8, ptr %1, i64 16
  %5 = load i32, ptr %4, align 8, !tbaa !6
  %6 = getelementptr inbounds nuw i8, ptr %2, i64 16
  %7 = load i32, ptr %6, align 8, !tbaa !6
  %.not = icmp eq i32 %5, %7
  br i1 %.not, label %15, label %8

8:                                                ; preds = %3
  %.not25 = icmp eq i32 %5, 0
  %spec.select = select i1 %.not25, ptr %2, ptr %1
  %spec.select28 = select i1 %.not25, ptr %1, ptr %2
  %9 = tail call i32 @BN_ucmp(ptr noundef %spec.select28, ptr noundef %spec.select) #4
  %10 = icmp slt i32 %9, 0
  br i1 %10, label %11, label %13

11:                                               ; preds = %8
  %12 = tail call i32 @BN_usub(ptr noundef %0, ptr noundef nonnull %spec.select, ptr noundef nonnull %spec.select28)
  %.not27 = icmp eq i32 %12, 0
  br i1 %.not27, label %52, label %.sink.split

13:                                               ; preds = %8
  %14 = tail call i32 @BN_usub(ptr noundef %0, ptr noundef nonnull %spec.select28, ptr noundef nonnull %spec.select)
  %.not26 = icmp eq i32 %14, 0
  br i1 %.not26, label %52, label %.sink.split

15:                                               ; preds = %3
  %16 = getelementptr inbounds nuw i8, ptr %1, i64 8
  %17 = load i32, ptr %16, align 8, !tbaa !13
  %18 = getelementptr inbounds nuw i8, ptr %2, i64 8
  %19 = load i32, ptr %18, align 8, !tbaa !13
  %20 = icmp slt i32 %17, %19
  %spec.select.i = select i1 %20, ptr %1, ptr %2
  %spec.select62.i = select i1 %20, ptr %2, ptr %1
  %21 = getelementptr inbounds nuw i8, ptr %spec.select62.i, i64 8
  %22 = load i32, ptr %21, align 8, !tbaa !13
  %23 = getelementptr inbounds nuw i8, ptr %spec.select.i, i64 8
  %24 = load i32, ptr %23, align 8, !tbaa !13
  %25 = add nsw i32 %22, 1
  %26 = sext i32 %25 to i64
  %27 = tail call ptr @bn_wexpand(ptr noundef %0, i64 noundef %26) #4
  %28 = icmp eq ptr %27, null
  br i1 %28, label %.sink.split, label %29

29:                                               ; preds = %15
  %30 = sub nsw i32 %22, %24
  %31 = getelementptr inbounds nuw i8, ptr %0, i64 8
  store i32 %22, ptr %31, align 8, !tbaa !13
  %32 = load ptr, ptr %spec.select62.i, align 8, !tbaa !14
  %33 = load ptr, ptr %spec.select.i, align 8, !tbaa !14
  %34 = load ptr, ptr %0, align 8, !tbaa !14
  %35 = tail call i64 @bn_add_words(ptr noundef %34, ptr noundef %32, ptr noundef %33, i32 noundef %24) #4
  %36 = sext i32 %24 to i64
  %37 = getelementptr inbounds i64, ptr %34, i64 %36
  %38 = getelementptr inbounds i64, ptr %32, i64 %36
  %.not.i = icmp eq i64 %35, 0
  br i1 %.not.i, label %.loopexit77.i, label %.preheader76.i

.preheader76.i:                                   ; preds = %29, %39
  %.153.i = phi ptr [ %41, %39 ], [ %38, %29 ]
  %.149.i = phi i32 [ %40, %39 ], [ %30, %29 ]
  %.1.i = phi ptr [ %44, %39 ], [ %37, %29 ]
  %.not56.not.i = icmp eq i32 %.149.i, 0
  br i1 %.not56.not.i, label %.thread69.i, label %39

39:                                               ; preds = %.preheader76.i
  %40 = add nsw i32 %.149.i, -1
  %41 = getelementptr inbounds nuw i8, ptr %.153.i, i64 8
  %42 = load i64, ptr %.153.i, align 8, !tbaa !15
  %43 = add i64 %42, 1
  %44 = getelementptr inbounds nuw i8, ptr %.1.i, i64 8
  store i64 %43, ptr %.1.i, align 8, !tbaa !15
  %.not57.i = icmp eq i64 %43, 0
  br i1 %.not57.i, label %.preheader76.i, label %.loopexit77.i, !llvm.loop !17

.thread69.i:                                      ; preds = %.preheader76.i
  store i64 1, ptr %.1.i, align 8, !tbaa !15
  %45 = load i32, ptr %31, align 8, !tbaa !13
  %46 = add nsw i32 %45, 1
  store i32 %46, ptr %31, align 8, !tbaa !13
  br label %.sink.split

.loopexit77.i:                                    ; preds = %39, %29
  %.052.i = phi ptr [ %38, %29 ], [ %41, %39 ]
  %.048.i = phi i32 [ %30, %29 ], [ %40, %39 ]
  %.047.i = phi ptr [ %37, %29 ], [ %44, %39 ]
  %.not59.i = icmp eq i32 %.048.i, 0
  %.not60.i = icmp eq ptr %.047.i, %.052.i
  %or.cond.i = select i1 %.not59.i, i1 true, i1 %.not60.i
  br i1 %or.cond.i, label %.sink.split, label %.preheader.i

.preheader.i:                                     ; preds = %.loopexit77.i, %.preheader.i
  %.383.i = phi ptr [ %50, %.preheader.i ], [ %.047.i, %.loopexit77.i ]
  %.35182.i = phi i32 [ %47, %.preheader.i ], [ %.048.i, %.loopexit77.i ]
  %.35581.i = phi ptr [ %48, %.preheader.i ], [ %.052.i, %.loopexit77.i ]
  %47 = add nsw i32 %.35182.i, -1
  %48 = getelementptr inbounds nuw i8, ptr %.35581.i, i64 8
  %49 = load i64, ptr %.35581.i, align 8, !tbaa !15
  %50 = getelementptr inbounds nuw i8, ptr %.383.i, i64 8
  store i64 %49, ptr %.383.i, align 8, !tbaa !15
  %.not61.i = icmp eq i32 %47, 0
  br i1 %.not61.i, label %.sink.split, label %.preheader.i, !llvm.loop !19

.sink.split:                                      ; preds = %.preheader.i, %15, %.loopexit77.i, %.thread69.i, %13, %11
  %.sink = phi i32 [ 1, %11 ], [ 0, %13 ], [ %5, %.thread69.i ], [ %5, %.loopexit77.i ], [ %5, %15 ], [ %5, %.preheader.i ]
  %.0.ph = phi i32 [ 1, %11 ], [ 1, %13 ], [ 1, %.thread69.i ], [ 1, %.loopexit77.i ], [ 0, %15 ], [ 1, %.preheader.i ]
  %51 = getelementptr inbounds nuw i8, ptr %0, i64 16
  store i32 %.sink, ptr %51, align 8, !tbaa !6
  br label %52

52:                                               ; preds = %.sink.split, %13, %11
  %.0 = phi i32 [ 0, %11 ], [ 0, %13 ], [ %.0.ph, %.sink.split ]
  ret i32 %.0
}